target datalayout = "e-m:e-p270:32:32-p271:32:32-p272:64:64-i64:64-i128:128-f80:128-n8:16:32:64-S128"
target triple = "x86_64-pc-linux-gnu"

; Function Attrs: mustprogress nounwind uwtable
define internal noundef zeroext i1 @_ZN12_GLOBAL__N_121isArithmeticOperationEN7glslang9TOperatorE(i32 noundef %0) #0 {
  %2 = alloca i1, align 1
  %3 = alloca i32, align 4
  store i32 %0, ptr %3, align 4
  %4 = load i32, ptr %3, align 4
  switch i32 %4, label %6 [
    i32 586, label %5
    i32 587, label %5
    i32 588, label %5
    i32 589, label %5
    i32 590, label %5
    i32 591, label %5
    i32 592, label %5
    i32 593, label %5
    i32 594, label %5
    i32 8, label %5
    i32 156, label %5
    i32 157, label %5
    i32 158, label %5
    i32 159, label %5
    i32 160, label %5
    i32 175, label %5
    i32 176, label %5
    i32 177, label %5
    i32 178, label %5
    i32 297, label %5
    i32 275, label %5
    i32 12, label %5
    i32 13, label %5
    i32 14, label %5
    i32 15, label %5
  ]

5:                                                ; preds = %1, %1, %1, %1, %1, %1, %1, %1, %1, %1, %1, %1, %1, %1, %1, %1, %1, %1, %1, %1, %1, %1, %1, %1, %1
  store i1 true, ptr %2, align 1
  br label %7

6:                                                ; preds = %1
  store i1 false, ptr %2, align 1
  br label %7

7:                                                ; preds = %6, %5
  %8 = load i1, ptr %2, align 1
  ret i1 %8
}