; Function Attrs: mustprogress nofree norecurse nosync nounwind willreturn memory(none) uwtable
define internal fastcc noundef zeroext i1 @_ZN12_GLOBAL__N_121isArithmeticOperationEN7glslang9TOperatorE(i32 noundef %0) unnamed_addr #9 {
  switch i32 %0, label %2 [
    i32 586, label %3
    i32 587, label %3
    i32 588, label %3
    i32 589, label %3
    i32 590, label %3
    i32 591, label %3
    i32 592, label %3
    i32 593, label %3
    i32 594, label %3
    i32 8, label %3
    i32 156, label %3
    i32 157, label %3
    i32 158, label %3
    i32 159, label %3
    i32 160, label %3
    i32 175, label %3
    i32 176, label %3
    i32 177, label %3
    i32 178, label %3
    i32 297, label %3
    i32 275, label %3
    i32 12, label %3
    i32 13, label %3
    i32 14, label %3
    i32 15, label %3
  ]

2:                                                ; preds = %1
  br label %3

3:                                                ; preds = %1, %1, %1, %1, %1, %1, %1, %1, %1, %1, %1, %1, %1, %1, %1, %1, %1, %1, %1, %1, %1, %1, %1, %1, %1, %2
  %.0 = phi i1 [ false, %2 ], [ true, %1 ], [ true, %1 ], [ true, %1 ], [ true, %1 ], [ true, %1 ], [ true, %1 ], [ true, %1 ], [ true, %1 ], [ true, %1 ], [ true, %1 ], [ true, %1 ], [ true, %1 ], [ true, %1 ], [ true, %1 ], [ true, %1 ], [ true, %1 ], [ true, %1 ], [ true, %1 ], [ true, %1 ], [ true, %1 ], [ true, %1 ], [ true, %1 ], [ true, %1 ], [ true, %1 ], [ true, %1 ]
  ret i1 %.0
}